Certificate:
    Data:
        Version: 1 (0x0)
        Serial Number:
            38:d4:8c:f8:a7:29:53:5b:c3:d0:4a:e5:b6:ac:96:ba:93:ff:f9:83
        Signature Algorithm: NULL
        Issuer: C = KR, ST = State, L = Location, O = Your Org., CN = *.test.domain.com
        Validity
            Not Before: Dec 20 00:44:15 2022 GMT
            Not After : Dec 17 00:44:15 2032 GMT
        Subject: C = KR, ST = State, L = Location, O = Your Org., CN = *.test.domain.com
        Subject Public Key Info:
            Public Key Algorithm: rsaEncryption
                RSA Public-Key: (2048 bit)
                Modulus:
                    00:c6:39:4e:28:c4:f7:4e:54:82:f4:be:b1:a6:9d:
                    80:5f:28:80:8d:d4:06:be:2e:0f:d3:0b:c8:ce:d4:
                    38:2b:9d:bb:8d:97:d9:c4:5a:c7:17:b5:05:6c:c6:
                    1e:9e:d8:b2:50:ce:3c:85:35:9d:66:29:ad:e7:81:
                    bb:96:b9:ef:b0:8e:9c:d5:80:a9:49:a3:28:38:4b:
                    44:c0:ef:4c:15:28:3a:e7:f6:c5:53:97:e0:e5:3e:
                    70:6e:17:70:55:3b:0c:20:a1:1d:53:87:5a:9e:9b:
                    08:23:84:d1:9e:f0:4e:09:7e:b4:0c:9c:9b:67:b3:
                    36:38:91:06:a0:5d:bd:13:1f:e1:6f:12:59:30:a3:
                    0e:69:96:60:22:4a:a3:c4:4c:ac:39:ab:c4:93:cf:
                    a5:1d:ea:c5:a4:1b:d7:43:6b:4a:c6:36:10:8f:3f:
                    ac:84:ec:d3:6e:65:76:aa:37:93:68:fd:df:64:1c:
                    0b:42:af:46:f6:37:84:22:ab:54:f4:a2:71:11:f8:
                    8e:30:ef:78:f1:bb:21:7f:6c:cf:6c:d7:66:73:74:
                    82:69:3e:9b:88:7e:27:bc:4a:53:3c:57:01:2e:31:
                    e6:87:86:6e:10:e1:e6:29:7c:9e:7e:6a:6d:7e:80:
                    3a:70:0b:8b:2d:4e:67:15:b8:62:87:4c:7d:e2:7e:
                    96:63
                Exponent: 65537 (0x10001)
    Signature Algorithm: NULL
-----BEGIN CERTIFICATE-----
MIIDoTCCAomgAwIBAgIUONSM+KcpU1vD0ErltqyWupP/+YMwDQYJKoZIhvcNAQEL
BQAwYDELMAkGA1UEBhMCS1IxDjAMBgNVBAgMBVN0YXRlMREwDwYDVQQHDAhMb2Nh
dGlvbjESMBAGA1UECgwJWW91ciBPcmcuMRowGAYDVQQDDBEqLnRlc3QuZG9tYWlu
LmNvbTAeFw0yMjEyMjAwMDQ0MTVaFw0zMjEyMTcwMDQ0MTVaMGAxCzAJBgNVBAYT
AktSMQ4wDAYDVQQIDAVTdGF0ZTERMA8GA1UEBwwITG9jYXRpb24xEjAQBgNVBAoM
CVlvdXIgT3JnLjEaMBgGA1UEAwwRKi50ZXN0LmRvbWFpbi5jb20wggEiMA0GCSqG
SIb3DQEBAQUAA4IBDwAwggEKAoIBAQDGOU4oxPdOVIL0vrGmnYBfKICN1Aa+Lg/T
C8jO1DgrnbuNl9nEWscXtQVsxh6e2LJQzjyFNZ1mKa3ngbuWue+wjpzVgKlJoyg4
S0TA70wVKDrn9sVTl+DlPnBuF3BVOwwgoR1Th1qemwgjhNGe8E4JfrQMnJtnszY4
kQagXb0TH+FvElkwow5plmAiSqPETKw5q8STz6Ud6sWkG9dDa0rGNhCPP6yE7NNu
ZXaqN5No/d9kHAtCr0b2N4Qiq1T0onER+I4w73jxuyF/bM9s12ZzdIJpPpuIfie8
SlM8VwEuMeaHhm4Q4eYpfJ5+am1+gDpwC4stTmcVuGKHTH3ifpZjAgMBAAGjUzBR
MB0GA1UdDgQWBBT+fG+LrEm9KoOEM8x0JfhcQcnfhDAfBgNVHSMEGDAWgBT+fG+L
rEm9KoOEM8x0JfhcQcnfhDAPBgNVHRMBAf8EBTADAQH/MA0GCSqGSIb3DQEBCwUA
A4IBAQATqgxZqUwU3iisH6xorC/91ZVQv2oIcIkv74olL5V7zXcz0ln7qzd7G4Pm
kFxrk9M2XBxVc8e+DEp4Sko7JZvwxQB72MEW34EPTS1PQO9/3hWy/EnZwV72FWCa
hblK6LGH8DhK8jAsiyApVPUg32n2C8p1n42Ux6ywJAZZPvbleaeHsaOL8IcsZLH1
4k/LclNhooArQfLuf1+GwTuxOA3VfP1cvd3kdQcaSglIQw8pvtMjmLr6Rubjg41h
iQ4GziP/vPpAFxlFxyUSRxNr1eOEboWXl+8t5HPVEXroxgXhnjYuQhBqwqEy4L/F
5MfS04MA4ofstXFL47rU2a1rk1K+
-----END CERTIFICATE-----
